Certificate:
    Data:
        Version: 3 (0x2)
        Serial Number:
            b7:a2:23:fc:66:6b:d5:aa
        Signature Algorithm: sha1WithRSAEncryption
        Issuer: CN=datavibe.net CA, C=US, ST=New York, L=New York, O=datavibe.net/emailAddress=admin@datavibe.net
        Validity
            Not Before: Aug 30 11:51:35 2009 GMT
            Not After : Aug  6 11:51:35 2109 GMT
        Subject: CN=datavibe.net CA, C=US, ST=New York, L=New York, O=datavibe.net/emailAddress=admin@datavibe.net
        Subject Public Key Info:
            Public Key Algorithm: rsaEncryption
            RSA Public Key: (2048 bit)
                Modulus (2048 bit):
                    00:b3:5e:78:64:83:0b:75:06:fc:81:82:2c:58:be:
                    8e:87:11:10:99:b7:c5:81:74:62:52:08:bd:4f:df:
                    14:e3:23:c3:5a:bd:45:f9:35:e1:b4:65:f0:7a:08:
                    6e:c5:f0:c3:37:12:d5:eb:83:08:bc:55:8e:e6:47:
                    6e:f3:9d:8e:29:a3:83:72:5f:92:d7:24:24:29:03:
                    f5:c5:78:fe:f7:40:10:a4:65:44:de:a6:68:bf:5c:
                    64:e9:0c:01:32:b2:41:9c:99:61:37:de:83:ca:75:
                    94:f6:92:68:1a:dd:f8:5b:86:f1:34:3f:b6:7c:11:
                    5a:d4:87:ad:92:b3:81:4b:7e:7c:48:9b:39:e5:ce:
                    59:8f:02:c6:90:36:f6:e2:7b:56:3f:39:58:97:ff:
                    12:b1:2c:65:90:e4:39:49:6a:79:3a:2d:35:be:ed:
                    3f:91:48:9f:a8:56:7f:88:93:21:59:57:8a:ae:2e:
                    87:ca:73:09:e2:a0:ac:3d:99:eb:8a:16:4d:7c:04:
                    8d:51:71:5d:75:03:d2:92:16:3a:55:50:7d:17:cd:
                    65:4d:91:07:81:36:5b:fe:45:73:0c:79:23:ea:d6:
                    91:f2:6f:a2:3f:a9:fa:2f:0b:b5:6b:a7:c3:90:96:
                    01:8a:e5:1b:c1:a0:60:d7:b5:30:d9:fc:1c:4a:7f:
                    11:13
                Exponent: 65537 (0x10001)
        X509v3 extensions:
            X509v3 Subject Key Identifier: 
                13:B9:BC:B1:BF:98:3D:39:27:5C:DF:8E:F0:9F:F6:18:41:73:86:13
            X509v3 Authority Key Identifier: 
                keyid:13:B9:BC:B1:BF:98:3D:39:27:5C:DF:8E:F0:9F:F6:18:41:73:86:13
                DirName:/CN=datavibe.net CA/C=US/ST=New York/L=New York/O=datavibe.net/emailAddress=admin@datavibe.net
                serial:B7:A2:23:FC:66:6B:D5:AA

            X509v3 Basic Constraints: 
                CA:TRUE
    Signature Algorithm: sha1WithRSAEncryption
        13:3d:34:97:2b:85:8a:51:f6:05:78:bc:bf:af:72:fc:86:53:
        49:3c:30:e4:3e:5d:d5:d4:ba:82:b6:d6:f2:d6:6b:81:d4:26:
        cc:a8:a0:73:e6:e9:7a:46:21:29:fe:de:76:61:3b:70:19:ce:
        28:ad:bf:c4:a3:1a:88:ef:82:b7:29:a1:50:74:66:70:1a:6a:
        57:c2:82:fe:7f:f3:e9:40:b8:a4:b0:70:4a:0a:0e:94:05:c9:
        bc:d5:c6:f8:22:94:9f:49:fe:d7:d4:2f:49:5c:4a:a8:07:67:
        5c:4e:81:69:a0:fa:93:7a:d3:9f:92:a0:c0:6b:f8:20:90:9e:
        eb:a9:72:82:e8:74:cb:37:71:dd:28:ee:25:47:0d:04:6f:f7:
        34:17:ce:33:2d:e9:5a:01:f0:35:a9:42:c5:cd:73:6d:57:a2:
        e2:9b:f7:5d:18:18:3a:14:b7:4b:03:e1:87:1a:bc:5b:ec:9c:
        1f:7d:26:bd:f1:35:95:f0:64:20:85:27:94:44:77:ce:78:dc:
        66:4a:85:15:df:18:ca:56:69:d0:a3:1b:9c:39:1d:7c:b4:3e:
        d0:8f:e2:96:da:51:12:0e:5d:2d:51:3b:88:a5:0e:25:4a:c1:
        6d:e2:91:70:9e:59:79:f4:7d:03:a5:55:3c:17:be:69:fb:ef:
        f3:bc:de:f9
-----BEGIN CERTIFICATE-----
MIIEhTCCA22gAwIBAgIJALeiI/xma9WqMA0GCSqGSIb3DQEBBQUAMIGHMRgwFgYD
VQQDEw9kYXRhdmliZS5uZXQgQ0ExCzAJBgNVBAYTAlVTMREwDwYDVQQIEwhOZXcg
WW9yazERMA8GA1UEBxMITmV3IFlvcmsxFTATBgNVBAoTDGRhdGF2aWJlLm5ldDEh
MB8GCSqGSIb3DQEJARYSYWRtaW5AZGF0YXZpYmUubmV0MCAXDTA5MDgzMDExNTEz
NVoYDzIxMDkwODA2MTE1MTM1WjCBhzEYMBYGA1UEAxMPZGF0YXZpYmUubmV0IENB
MQswCQYDVQQGEwJVUzERMA8GA1UECBMITmV3IFlvcmsxETAPBgNVBAcTCE5ldyBZ
b3JrMRUwEwYDVQQKEwxkYXRhdmliZS5uZXQxITAfBgkqhkiG9w0BCQEWEmFkbWlu
QGRhdGF2aWJlLm5ldDCCASIwDQYJKoZIhvcNAQEBBQADggEPADCCAQoCggEBALNe
eGSDC3UG/IGCLFi+jocREJm3xYF0YlIIvU/fFOMjw1q9Rfk14bRl8HoIbsXwwzcS
1euDCLxVjuZHbvOdjimjg3JfktckJCkD9cV4/vdAEKRlRN6maL9cZOkMATKyQZyZ
YTfeg8p1lPaSaBrd+FuG8TQ/tnwRWtSHrZKzgUt+fEibOeXOWY8CxpA29uJ7Vj85
WJf/ErEsZZDkOUlqeTotNb7tP5FIn6hWf4iTIVlXiq4uh8pzCeKgrD2Z64oWTXwE
jVFxXXUD0pIWOlVQfRfNZU2RB4E2W/5Fcwx5I+rWkfJvoj+p+i8LtWunw5CWAYrl
G8GgYNe1MNn8HEp/ERMCAwEAAaOB7zCB7DAdBgNVHQ4EFgQUE7m8sb+YPTknXN+O
8J/2GEFzhhMwgbwGA1UdIwSBtDCBsYAUE7m8sb+YPTknXN+O8J/2GEFzhhOhgY2k
gYowgYcxGDAWBgNVBAMTD2RhdGF2aWJlLm5ldCBDQTELMAkGA1UEBhMCVVMxETAP
BgNVBAgTCE5ldyBZb3JrMREwDwYDVQQHEwhOZXcgWW9yazEVMBMGA1UEChMMZGF0
YXZpYmUubmV0MSEwHwYJKoZIhvcNAQkBFhJhZG1pbkBkYXRhdmliZS5uZXSCCQC3
oiP8ZmvVqjAMBgNVHRMEBTADAQH/MA0GCSqGSIb3DQEBBQUAA4IBAQATPTSXK4WK
UfYFeLy/r3L8hlNJPDDkPl3V1LqCttby1muB1CbMqKBz5ul6RiEp/t52YTtwGc4o
rb/EoxqI74K3KaFQdGZwGmpXwoL+f/PpQLiksHBKCg6UBcm81cb4IpSfSf7X1C9J
XEqoB2dcToFpoPqTetOfkqDAa/ggkJ7rqXKC6HTLN3HdKO4lRw0Eb/c0F84zLela
AfA1qULFzXNtV6Lim/ddGBg6FLdLA+GHGrxb7JwffSa98TWV8GQghSeURHfOeNxm
SoUV3xjKVmnQoxucOR18tD7Qj+KW2lESDl0tUTuIpQ4lSsFt4pFwnll59H0DpVU8
F75p++/zvN75
-----END CERTIFICATE-----
